target datalayout = "e-m:e-p270:32:32-p271:32:32-p272:64:64-i64:64-i128:128-f80:128-n8:16:32:64-S128"
target triple = "x86_64-pc-linux-gnu"

%struct._object = type { %union.anon, ptr }
%union.anon = type { i64 }
%struct.Blake2Object = type { %struct._object, %union.anon.0, i32, i8, %struct.PyMutex }
%union.anon.0 = type { ptr }
%struct.PyMutex = type { i8 }

; Function Attrs: inlinehint nounwind uwtable
define internal i32 @_Py_atomic_compare_exchange_uint8(ptr noundef %0, ptr noundef %1, i8 noundef zeroext %2) #3 {
  %4 = alloca ptr, align 8
  %5 = alloca ptr, align 8
  %6 = alloca i8, align 1
  %7 = alloca i8, align 1
  %8 = alloca i8, align 1
  store ptr %0, ptr %4, align 8, !tbaa !70
  store ptr %1, ptr %5, align 8, !tbaa !70
  store i8 %2, ptr %6, align 1, !tbaa !43
  %9 = load ptr, ptr %4, align 8, !tbaa !70
  %10 = load ptr, ptr %5, align 8, !tbaa !70
  %11 = load i8, ptr %6, align 1, !tbaa !43
  store i8 %11, ptr %7, align 1, !tbaa !43
  %12 = load i8, ptr %10, align 1
  %13 = load i8, ptr %7, align 1
  %14 = cmpxchg ptr %9, i8 %12, i8 %13 seq_cst seq_cst, align 1
  %15 = extractvalue { i8, i1 } %14, 0
  %16 = extractvalue { i8, i1 } %14, 1
  br i1 %16, label %18, label %17

17:                                               ; preds = %3
  store i8 %15, ptr %10, align 1
  br label %18

18:                                               ; preds = %17, %3
  %19 = zext i1 %16 to i8
  store i8 %19, ptr %8, align 1, !tbaa !71
  %20 = load i8, ptr %8, align 1, !tbaa !71, !range !10, !noundef !11
  %21 = trunc i8 %20 to i1
  %22 = zext i1 %21 to i32
  ret i32 %22
}

; Function Attrs: inlinehint nounwind uwtable
define internal void @_PyMutex_Unlock(ptr noundef %0) #3 {
  %2 = alloca ptr, align 8
  %3 = alloca i8, align 1
  store ptr %0, ptr %2, align 8, !tbaa !68
  call void @llvm.lifetime.start.p0(i64 1, ptr %3) #8
  store i8 1, ptr %3, align 1, !tbaa !43
  %4 = load ptr, ptr %2, align 8, !tbaa !68
  %5 = getelementptr inbounds nuw %struct.PyMutex, ptr %4, i32 0, i32 0
  %6 = call i32 @_Py_atomic_compare_exchange_uint8(ptr noundef %5, ptr noundef %3, i8 noundef zeroext 0)
  %7 = icmp ne i32 %6, 0
  br i1 %7, label %10, label %8

8:                                                ; preds = %1
  %9 = load ptr, ptr %2, align 8, !tbaa !68
  call void @PyMutex_Unlock(ptr noundef %9)
  br label %10

10:                                               ; preds = %8, %1
  call void @llvm.lifetime.end.p0(i64 1, ptr %3) #8
  ret void
}

; Function Attrs: inlinehint nounwind uwtable
define internal void @_PyMutex_Lock(ptr noundef %0) #3 {
  %2 = alloca ptr, align 8
  %3 = alloca i8, align 1
  store ptr %0, ptr %2, align 8, !tbaa !68
  call void @llvm.lifetime.start.p0(i64 1, ptr %3) #8
  store i8 0, ptr %3, align 1, !tbaa !43
  %4 = load ptr, ptr %2, align 8, !tbaa !68
  %5 = getelementptr inbounds nuw %struct.PyMutex, ptr %4, i32 0, i32 0
  %6 = call i32 @_Py_atomic_compare_exchange_uint8(ptr noundef %5, ptr noundef %3, i8 noundef zeroext 1)
  %7 = icmp ne i32 %6, 0
  br i1 %7, label %10, label %8

8:                                                ; preds = %1
  %9 = load ptr, ptr %2, align 8, !tbaa !68
  call void @PyMutex_Lock(ptr noundef %9)
  br label %10

10:                                               ; preds = %8, %1
  call void @llvm.lifetime.end.p0(i64 1, ptr %3) #8
  ret void
}

; Function Attrs: nounwind uwtable
define internal ptr @_blake2_blake2b_digest_impl(ptr noundef %0) #0 {
  %2 = alloca ptr, align 8
  %3 = alloca [64 x i8], align 16
  %4 = alloca i8, align 1
  store ptr %0, ptr %2, align 8, !tbaa !3
  call void @llvm.lifetime.start.p0(i64 64, ptr %3) #8
  %5 = load ptr, ptr %2, align 8, !tbaa !3
  %6 = getelementptr inbounds nuw %struct.Blake2Object, ptr %5, i32 0, i32 3
  %7 = load i8, ptr %6, align 4, !tbaa !61, !range !10, !noundef !11
  %8 = trunc i8 %7 to i1
  br i1 %8, label %9, label %12

9:                                                ; preds = %1
  %10 = load ptr, ptr %2, align 8, !tbaa !3
  %11 = getelementptr inbounds nuw %struct.Blake2Object, ptr %10, i32 0, i32 4
  call void @_PyMutex_Lock(ptr noundef %11)
  br label %12

12:                                               ; preds = %9, %1
  call void @llvm.lifetime.start.p0(i64 1, ptr %4) #8
  store i8 0, ptr %4, align 1, !tbaa !43
  %13 = load ptr, ptr %2, align 8, !tbaa !3
  %14 = getelementptr inbounds nuw %struct.Blake2Object, ptr %13, i32 0, i32 2
  %15 = load i32, ptr %14, align 8, !tbaa !47
  switch i32 %15, label %40 [
    i32 3, label %16
    i32 2, label %22
    i32 1, label %28
    i32 0, label %34
  ]

16:                                               ; preds = %12
  %17 = load ptr, ptr %2, align 8, !tbaa !3
  %18 = getelementptr inbounds nuw %struct.Blake2Object, ptr %17, i32 0, i32 1
  %19 = load ptr, ptr %18, align 8, !tbaa !43
  %20 = getelementptr inbounds [64 x i8], ptr %3, i64 0, i64 0
  %21 = call zeroext i8 @python_hashlib_Hacl_Hash_Blake2b_Simd256_digest(ptr noundef %19, ptr noundef %20)
  store i8 %21, ptr %4, align 1, !tbaa !43
  br label %41

22:                                               ; preds = %12
  %23 = load ptr, ptr %2, align 8, !tbaa !3
  %24 = getelementptr inbounds nuw %struct.Blake2Object, ptr %23, i32 0, i32 1
  %25 = load ptr, ptr %24, align 8, !tbaa !43
  %26 = getelementptr inbounds [64 x i8], ptr %3, i64 0, i64 0
  %27 = call zeroext i8 @python_hashlib_Hacl_Hash_Blake2s_Simd128_digest(ptr noundef %25, ptr noundef %26)
  store i8 %27, ptr %4, align 1, !tbaa !43
  br label %41

28:                                               ; preds = %12
  %29 = load ptr, ptr %2, align 8, !tbaa !3
  %30 = getelementptr inbounds nuw %struct.Blake2Object, ptr %29, i32 0, i32 1
  %31 = load ptr, ptr %30, align 8, !tbaa !43
  %32 = getelementptr inbounds [64 x i8], ptr %3, i64 0, i64 0
  %33 = call zeroext i8 @python_hashlib_Hacl_Hash_Blake2b_digest(ptr noundef %31, ptr noundef %32)
  store i8 %33, ptr %4, align 1, !tbaa !43
  br label %41

34:                                               ; preds = %12
  %35 = load ptr, ptr %2, align 8, !tbaa !3
  %36 = getelementptr inbounds nuw %struct.Blake2Object, ptr %35, i32 0, i32 1
  %37 = load ptr, ptr %36, align 8, !tbaa !43
  %38 = getelementptr inbounds [64 x i8], ptr %3, i64 0, i64 0
  %39 = call zeroext i8 @python_hashlib_Hacl_Hash_Blake2s_digest(ptr noundef %37, ptr noundef %38)
  store i8 %39, ptr %4, align 1, !tbaa !43
  br label %41

40:                                               ; preds = %12
  unreachable

41:                                               ; preds = %34, %28, %22, %16
  %42 = load ptr, ptr %2, align 8, !tbaa !3
  %43 = getelementptr inbounds nuw %struct.Blake2Object, ptr %42, i32 0, i32 3
  %44 = load i8, ptr %43, align 4, !tbaa !61, !range !10, !noundef !11
  %45 = trunc i8 %44 to i1
  br i1 %45, label %46, label %49

46:                                               ; preds = %41
  %47 = load ptr, ptr %2, align 8, !tbaa !3
  %48 = getelementptr inbounds nuw %struct.Blake2Object, ptr %47, i32 0, i32 4
  call void @_PyMutex_Unlock(ptr noundef %48)
  br label %49

49:                                               ; preds = %46, %41
  %50 = getelementptr inbounds [64 x i8], ptr %3, i64 0, i64 0
  %51 = load i8, ptr %4, align 1, !tbaa !43
  %52 = zext i8 %51 to i64
  %53 = call ptr @PyBytes_FromStringAndSize(ptr noundef %50, i64 noundef %52)
  call void @llvm.lifetime.end.p0(i64 1, ptr %4) #8
  call void @llvm.lifetime.end.p0(i64 64, ptr %3) #8
  ret ptr %53
}

; Function Attrs: nounwind uwtable
define internal ptr @_blake2_blake2b_digest(ptr noundef %0, ptr noundef %1) #0 {
  %3 = alloca ptr, align 8
  %4 = alloca ptr, align 8
  store ptr %0, ptr %3, align 8, !tbaa !24
  store ptr %1, ptr %4, align 8, !tbaa !24
  %5 = load ptr, ptr %3, align 8, !tbaa !24
  %6 = call ptr @_blake2_blake2b_digest_impl(ptr noundef %5)
  ret ptr %6
}